(lp0
((ibutterfly.task
Task
p1
(dp2
S'args'
p3
(I10000
tp4
sS'kwargs'
p5
(dp6
sbI980
tp7
a((ibutterfly.task
Task
p8
(dp9
g3
(I10001
tp10
sg5
(dp11
sbI972
tp12
a((ibutterfly.task
Task
p13
(dp14
g3
(I10002
tp15
sg5
(dp16
sbI973
tp17
a((ibutterfly.task
Task
p18
(dp19
g3
(I10003
tp20
sg5
(dp21
sbI1055
tp22
a((ibutterfly.task
Task
p23
(dp24
g3
(I10004
tp25
sg5
(dp26
sbI999
tp27
a((ibutterfly.task
Task
p28
(dp29
g3
(I10005
tp30
sg5
(dp31
sbI1007
tp32
a((ibutterfly.task
Task
p33
(dp34
g3
(I10006
tp35
sg5
(dp36
sbI1055
tp37
a((ibutterfly.task
Task
p38
(dp39
g3
(I10007
tp40
sg5
(dp41
sbI1026
tp42
a((ibutterfly.task
Task
p43
(dp44
g3
(I10008
tp45
sg5
(dp46
sbI999
tp47
a((ibutterfly.task
Task
p48
(dp49
g3
(I10009
tp50
sg5
(dp51
sbI1029
tp52
a((ibutterfly.task
Task
p53
(dp54
g3
(I10010
tp55
sg5
(dp56
sbI1003
tp57
a.